target datalayout = "e-m:e-p270:32:32-p271:32:32-p272:64:64-i64:64-i128:128-f80:128-n8:16:32:64-S128"
target triple = "x86_64-pc-linux-gnu"

%struct.stbtt_vertex = type { i16, i16, i16, i16, i16, i16, i8, i8 }

; Function Attrs: nounwind uwtable
define void @stbtt_setvertex(ptr noundef %0, i8 noundef zeroext %1, i32 noundef %2, i32 noundef %3, i32 noundef %4, i32 noundef %5) #0 {
  %7 = alloca ptr, align 8
  %8 = alloca i8, align 1
  %9 = alloca i32, align 4
  %10 = alloca i32, align 4
  %11 = alloca i32, align 4
  %12 = alloca i32, align 4
  store ptr %0, ptr %7, align 8, !tbaa !3
  store i8 %1, ptr %8, align 1, !tbaa !13
  store i32 %2, ptr %9, align 4, !tbaa !14
  store i32 %3, ptr %10, align 4, !tbaa !14
  store i32 %4, ptr %11, align 4, !tbaa !14
  store i32 %5, ptr %12, align 4, !tbaa !14
  %13 = load i8, ptr %8, align 1, !tbaa !13
  %14 = load ptr, ptr %7, align 8, !tbaa !3
  %15 = getelementptr inbounds nuw %struct.stbtt_vertex, ptr %14, i32 0, i32 6
  store i8 %13, ptr %15, align 2, !tbaa !50
  %16 = load i32, ptr %9, align 4, !tbaa !14
  %17 = trunc i32 %16 to i16
  %18 = load ptr, ptr %7, align 8, !tbaa !3
  %19 = getelementptr inbounds nuw %struct.stbtt_vertex, ptr %18, i32 0, i32 0
  store i16 %17, ptr %19, align 2, !tbaa !52
  %20 = load i32, ptr %10, align 4, !tbaa !14
  %21 = trunc i32 %20 to i16
  %22 = load ptr, ptr %7, align 8, !tbaa !3
  %23 = getelementptr inbounds nuw %struct.stbtt_vertex, ptr %22, i32 0, i32 1
  store i16 %21, ptr %23, align 2, !tbaa !53
  %24 = load i32, ptr %11, align 4, !tbaa !14
  %25 = trunc i32 %24 to i16
  %26 = load ptr, ptr %7, align 8, !tbaa !3
  %27 = getelementptr inbounds nuw %struct.stbtt_vertex, ptr %26, i32 0, i32 2
  store i16 %25, ptr %27, align 2, !tbaa !54
  %28 = load i32, ptr %12, align 4, !tbaa !14
  %29 = trunc i32 %28 to i16
  %30 = load ptr, ptr %7, align 8, !tbaa !3
  %31 = getelementptr inbounds nuw %struct.stbtt_vertex, ptr %30, i32 0, i32 3
  store i16 %29, ptr %31, align 2, !tbaa !55
  ret void
}