; Function Attrs: mustprogress nofree norecurse nosync nounwind willreturn memory(argmem: write) uwtable
define void @stbtt_setvertex(ptr noundef writeonly captures(none) initializes((0, 8), (12, 13)) %0, i8 noundef zeroext %1, i32 noundef %2, i32 noundef %3, i32 noundef %4, i32 noundef %5) local_unnamed_addr #12 {
  %7 = getelementptr inbounds nuw i8, ptr %0, i64 12
  store i8 %1, ptr %7, align 2, !tbaa !45
  %8 = trunc i32 %2 to i16
  store i16 %8, ptr %0, align 2, !tbaa !48
  %9 = trunc i32 %3 to i16
  %10 = getelementptr inbounds nuw i8, ptr %0, i64 2
  store i16 %9, ptr %10, align 2, !tbaa !49
  %11 = trunc i32 %4 to i16
  %12 = getelementptr inbounds nuw i8, ptr %0, i64 4
  store i16 %11, ptr %12, align 2, !tbaa !50
  %13 = trunc i32 %5 to i16
  %14 = getelementptr inbounds nuw i8, ptr %0, i64 6
  store i16 %13, ptr %14, align 2, !tbaa !51
  ret void
}